; Function Attrs: mustprogress uwtable
define hidden void @_ZN3sls7context16reset_statisticsEv(ptr noundef nonnull align 8 captures(none) dereferenceable(321) %0) local_unnamed_addr #4 align 2 {
  %2 = getelementptr inbounds nuw i8, ptr %0, i64 16
  %3 = load ptr, ptr %2, align 8, !tbaa !49
  %4 = icmp eq ptr %3, null
  br i1 %4, label %._crit_edge, label %_ZNK17scoped_ptr_vectorIN3sls6pluginEE3endEv.exit

_ZNK17scoped_ptr_vectorIN3sls6pluginEE3endEv.exit: ; preds = %1
  %5 = getelementptr inbounds i8, ptr %3, i64 -4
  %6 = load i32, ptr %5, align 4, !tbaa !58
  %7 = zext i32 %6 to i64
  %8 = getelementptr inbounds nuw ptr, ptr %3, i64 %7
  %.not11 = icmp eq i32 %6, 0
  br i1 %.not11, label %._crit_edge, label %.lr.ph

._crit_edge:                                      ; preds = %15, %1, %_ZNK17scoped_ptr_vectorIN3sls6pluginEE3endEv.exit
  %9 = getelementptr inbounds nuw i8, ptr %0, i64 288
  tail call void @llvm.memset.p0.i64(ptr noundef nonnull align 8 dereferenceable(12) %9, i8 0, i64 12, i1 false)
  ret void

.lr.ph:                                           ; preds = %_ZNK17scoped_ptr_vectorIN3sls6pluginEE3endEv.exit, %15
  %.012 = phi ptr [ %16, %15 ], [ %3, %_ZNK17scoped_ptr_vectorIN3sls6pluginEE3endEv.exit ]
  %10 = load ptr, ptr %.012, align 8, !tbaa !70
  %.not10 = icmp eq ptr %10, null
  br i1 %.not10, label %15, label %11

11:                                               ; preds = %.lr.ph
  %12 = load ptr, ptr %10, align 8, !tbaa !3
  %13 = getelementptr inbounds nuw i8, ptr %12, i64 152
  %14 = load ptr, ptr %13, align 8
  tail call void %14(ptr noundef nonnull align 8 dereferenceable(28) %10)
  br label %15

15:                                               ; preds = %11, %.lr.ph
  %16 = getelementptr inbounds nuw i8, ptr %.012, i64 8
  %.not = icmp eq ptr %16, %8
  br i1 %.not, label %._crit_edge, label %.lr.ph
}